; ModuleID = 'source-C-CXX/36/655.cpp'
source_filename = "source-C-CXX/36/655.cpp"
target datalayout = "e-m:e-p270:32:32-p271:32:32-p272:64:64-i64:64-f80:128-n8:16:32:64-S128"
target triple = "x86_64-pc-linux-gnu"

%"class.std::ios_base::Init" = type { i8 }
%"class.std::basic_istream" = type { i32 (...)**, i64, %"class.std::basic_ios" }
%"class.std::basic_ios" = type { %"class.std::ios_base", %"class.std::basic_ostream"*, i8, i8, %"class.std::basic_streambuf"*, %"class.std::ctype"*, %"class.std::num_put"*, %"class.std::num_get"* }
%"class.std::ios_base" = type { i32 (...)**, i64, i64, i32, i32, i32, %"struct.std::ios_base::_Callback_list"*, %"struct.std::ios_base::_Words", [8 x %"struct.std::ios_base::_Words"], i32, %"struct.std::ios_base::_Words"*, %"class.std::locale" }
%"struct.std::ios_base::_Callback_list" = type { %"struct.std::ios_base::_Callback_list"*, void (i32, %"class.std::ios_base"*, i32)*, i32, i32 }
%"struct.std::ios_base::_Words" = type { i8*, i64 }
%"class.std::locale" = type { %"class.std::locale::_Impl"* }
%"class.std::locale::_Impl" = type { i32, %"class.std::locale::facet"**, i64, %"class.std::locale::facet"**, i8** }
%"class.std::locale::facet" = type <{ i32 (...)**, i32, [4 x i8] }>
%"class.std::basic_ostream" = type { i32 (...)**, %"class.std::basic_ios" }
%"class.std::basic_streambuf" = type { i32 (...)**, i8*, i8*, i8*, i8*, i8*, i8*, %"class.std::locale" }
%"class.std::ctype" = type <{ %"class.std::locale::facet.base", [4 x i8], %struct.__locale_struct*, i8, [7 x i8], i32*, i32*, i16*, i8, [256 x i8], [256 x i8], i8, [6 x i8] }>
%"class.std::locale::facet.base" = type <{ i32 (...)**, i32 }>
%struct.__locale_struct = type { [13 x %struct.__locale_data*], i16*, i32*, i32*, [13 x i8*] }
%struct.__locale_data = type opaque
%"class.std::num_put" = type { %"class.std::locale::facet.base", [4 x i8] }
%"class.std::num_get" = type { %"class.std::locale::facet.base", [4 x i8] }

@_ZStL8__ioinit = internal global %"class.std::ios_base::Init" zeroinitializer, align 1
@__dso_handle = external hidden global i8
@_ZSt3cin = external global %"class.std::basic_istream", align 8
@_ZSt4cout = external global %"class.std::basic_ostream", align 8
@.str = private unnamed_addr constant [3 x i8] c"no\00", align 1
@llvm.global_ctors = appending global [1 x { i32, void ()*, i8* }] [{ i32, void ()*, i8* } { i32 65535, void ()* @_GLOBAL__sub_I_655.cpp, i8* null }]

declare void @_ZNSt8ios_base4InitC1Ev(%"class.std::ios_base::Init"* nonnull align 1 dereferenceable(1)) unnamed_addr #0

; Function Attrs: nounwind
declare void @_ZNSt8ios_base4InitD1Ev(%"class.std::ios_base::Init"* nonnull align 1 dereferenceable(1)) unnamed_addr #1

; Function Attrs: nofree nounwind
declare i32 @__cxa_atexit(void (i8*)*, i8*, i8*) local_unnamed_addr #2

; Function Attrs: mustprogress norecurse sspstrong uwtable
define dso_local i32 @main() local_unnamed_addr #3 {
  %1 = alloca i8, align 1
  %2 = alloca i32, align 4
  %3 = alloca [100001 x i8], align 16
  %4 = bitcast i32* %2 to i8*
  call void @llvm.lifetime.start.p0i8(i64 4, i8* nonnull %4) #7
  %5 = call nonnull align 8 dereferenceable(16) %"class.std::basic_istream"* @_ZNSirsERi(%"class.std::basic_istream"* nonnull align 8 dereferenceable(16) @_ZSt3cin, i32* nonnull align 4 dereferenceable(4) %2)
  %6 = getelementptr inbounds [100001 x i8], [100001 x i8]* %3, i64 0, i64 0
  %7 = load i32, i32* %2, align 4, !tbaa !5
  %8 = icmp sgt i32 %7, 0
  br i1 %8, label %9, label %108

9:                                                ; preds = %0, %100
  %10 = phi i8 [ %102, %100 ], [ undef, %0 ]
  %11 = phi i32 [ %105, %100 ], [ 0, %0 ]
  %12 = phi i32 [ %103, %100 ], [ undef, %0 ]
  call void @llvm.lifetime.start.p0i8(i64 100001, i8* nonnull %6) #7
  call void @_ZSt17__istream_extractRSiPcl(%"class.std::basic_istream"* nonnull align 8 dereferenceable(16) @_ZSt3cin, i8* nonnull %6, i64 100001)
  br label %13

13:                                               ; preds = %35, %9
  %14 = phi i64 [ %38, %35 ], [ 0, %9 ]
  %15 = phi i32 [ %36, %35 ], [ %12, %9 ]
  %16 = phi i8 [ %37, %35 ], [ %10, %9 ]
  %17 = getelementptr inbounds [100001 x i8], [100001 x i8]* %3, i64 0, i64 %14
  %18 = load i8, i8* %17, align 1, !tbaa !9
  switch i8 %18, label %19 [
    i8 0, label %39
    i8 1, label %35
  ]

19:                                               ; preds = %13, %30
  %20 = phi i64 [ %24, %30 ], [ %14, %13 ]
  %21 = phi i32 [ %32, %30 ], [ 1, %13 ]
  br label %22

22:                                               ; preds = %27, %19
  %23 = phi i64 [ %20, %19 ], [ %24, %27 ]
  %24 = add nuw nsw i64 %23, 1
  %25 = getelementptr inbounds [100001 x i8], [100001 x i8]* %3, i64 0, i64 %24
  %26 = load i8, i8* %25, align 1, !tbaa !9
  switch i8 %26, label %28 [
    i8 0, label %33
    i8 1, label %27
  ]

27:                                               ; preds = %22, %28
  br label %22, !llvm.loop !10

28:                                               ; preds = %22
  %29 = icmp eq i8 %26, %18
  br i1 %29, label %30, label %27

30:                                               ; preds = %28
  %31 = getelementptr inbounds [100001 x i8], [100001 x i8]* %3, i64 0, i64 %24
  %32 = add nuw nsw i32 %21, 1
  store i8 1, i8* %31, align 1, !tbaa !9
  br label %19, !llvm.loop !10

33:                                               ; preds = %22
  %34 = icmp eq i32 %21, 1
  br i1 %34, label %41, label %35

35:                                               ; preds = %13, %33
  %36 = phi i32 [ %21, %33 ], [ %15, %13 ]
  %37 = phi i8 [ %18, %33 ], [ %16, %13 ]
  %38 = add nuw nsw i64 %14, 1
  br label %13, !llvm.loop !12

39:                                               ; preds = %13
  %40 = icmp eq i32 %15, 1
  br i1 %40, label %41, label %72

41:                                               ; preds = %33, %39
  %42 = phi i8 [ %16, %39 ], [ %18, %33 ]
  call void @llvm.lifetime.start.p0i8(i64 1, i8* nonnull %1)
  store i8 %42, i8* %1, align 1, !tbaa !9
  %43 = call nonnull align 8 dereferenceable(8) %"class.std::basic_ostream"* @_ZSt16__ostream_insertIcSt11char_traitsIcEERSt13basic_ostreamIT_T0_ES6_PKS3_l(%"class.std::basic_ostream"* nonnull align 8 dereferenceable(8) @_ZSt4cout, i8* nonnull %1, i64 1)
  call void @llvm.lifetime.end.p0i8(i64 1, i8* nonnull %1)
  %44 = bitcast %"class.std::basic_ostream"* %43 to i8**
  %45 = load i8*, i8** %44, align 8, !tbaa !13
  %46 = getelementptr i8, i8* %45, i64 -24
  %47 = bitcast i8* %46 to i64*
  %48 = load i64, i64* %47, align 8
  %49 = bitcast %"class.std::basic_ostream"* %43 to i8*
  %50 = add nsw i64 %48, 240
  %51 = getelementptr inbounds i8, i8* %49, i64 %50
  %52 = bitcast i8* %51 to %"class.std::ctype"**
  %53 = load %"class.std::ctype"*, %"class.std::ctype"** %52, align 8, !tbaa !15
  %54 = icmp eq %"class.std::ctype"* %53, null
  br i1 %54, label %55, label %56

55:                                               ; preds = %41
  call void @_ZSt16__throw_bad_castv() #8
  unreachable

56:                                               ; preds = %41
  %57 = getelementptr inbounds %"class.std::ctype", %"class.std::ctype"* %53, i64 0, i32 8
  %58 = load i8, i8* %57, align 8, !tbaa !19
  %59 = icmp eq i8 %58, 0
  br i1 %59, label %63, label %60

60:                                               ; preds = %56
  %61 = getelementptr inbounds %"class.std::ctype", %"class.std::ctype"* %53, i64 0, i32 9, i64 10
  %62 = load i8, i8* %61, align 1, !tbaa !9
  br label %69

63:                                               ; preds = %56
  call void @_ZNKSt5ctypeIcE13_M_widen_initEv(%"class.std::ctype"* nonnull align 8 dereferenceable(570) %53)
  %64 = bitcast %"class.std::ctype"* %53 to i8 (%"class.std::ctype"*, i8)***
  %65 = load i8 (%"class.std::ctype"*, i8)**, i8 (%"class.std::ctype"*, i8)*** %64, align 8, !tbaa !13
  %66 = getelementptr inbounds i8 (%"class.std::ctype"*, i8)*, i8 (%"class.std::ctype"*, i8)** %65, i64 6
  %67 = load i8 (%"class.std::ctype"*, i8)*, i8 (%"class.std::ctype"*, i8)** %66, align 8
  %68 = call signext i8 %67(%"class.std::ctype"* nonnull align 8 dereferenceable(570) %53, i8 signext 10)
  br label %69

69:                                               ; preds = %60, %63
  %70 = phi i8 [ %62, %60 ], [ %68, %63 ]
  %71 = call nonnull align 8 dereferenceable(8) %"class.std::basic_ostream"* @_ZNSo3putEc(%"class.std::basic_ostream"* nonnull align 8 dereferenceable(8) %43, i8 signext %70)
  br label %100

72:                                               ; preds = %39
  %73 = call nonnull align 8 dereferenceable(8) %"class.std::basic_ostream"* @_ZSt16__ostream_insertIcSt11char_traitsIcEERSt13basic_ostreamIT_T0_ES6_PKS3_l(%"class.std::basic_ostream"* nonnull align 8 dereferenceable(8) @_ZSt4cout, i8* nonnull getelementptr inbounds ([3 x i8], [3 x i8]* @.str, i64 0, i64 0), i64 2)
  %74 = load i8*, i8** bitcast (%"class.std::basic_ostream"* @_ZSt4cout to i8**), align 8, !tbaa !13
  %75 = getelementptr i8, i8* %74, i64 -24
  %76 = bitcast i8* %75 to i64*
  %77 = load i64, i64* %76, align 8
  %78 = add nsw i64 %77, 240
  %79 = getelementptr inbounds i8, i8* bitcast (%"class.std::basic_ostream"* @_ZSt4cout to i8*), i64 %78
  %80 = bitcast i8* %79 to %"class.std::ctype"**
  %81 = load %"class.std::ctype"*, %"class.std::ctype"** %80, align 8, !tbaa !15
  %82 = icmp eq %"class.std::ctype"* %81, null
  br i1 %82, label %83, label %84

83:                                               ; preds = %72
  call void @_ZSt16__throw_bad_castv() #8
  unreachable

84:                                               ; preds = %72
  %85 = getelementptr inbounds %"class.std::ctype", %"class.std::ctype"* %81, i64 0, i32 8
  %86 = load i8, i8* %85, align 8, !tbaa !19
  %87 = icmp eq i8 %86, 0
  br i1 %87, label %91, label %88

88:                                               ; preds = %84
  %89 = getelementptr inbounds %"class.std::ctype", %"class.std::ctype"* %81, i64 0, i32 9, i64 10
  %90 = load i8, i8* %89, align 1, !tbaa !9
  br label %97

91:                                               ; preds = %84
  call void @_ZNKSt5ctypeIcE13_M_widen_initEv(%"class.std::ctype"* nonnull align 8 dereferenceable(570) %81)
  %92 = bitcast %"class.std::ctype"* %81 to i8 (%"class.std::ctype"*, i8)***
  %93 = load i8 (%"class.std::ctype"*, i8)**, i8 (%"class.std::ctype"*, i8)*** %92, align 8, !tbaa !13
  %94 = getelementptr inbounds i8 (%"class.std::ctype"*, i8)*, i8 (%"class.std::ctype"*, i8)** %93, i64 6
  %95 = load i8 (%"class.std::ctype"*, i8)*, i8 (%"class.std::ctype"*, i8)** %94, align 8
  %96 = call signext i8 %95(%"class.std::ctype"* nonnull align 8 dereferenceable(570) %81, i8 signext 10)
  br label %97

97:                                               ; preds = %88, %91
  %98 = phi i8 [ %90, %88 ], [ %96, %91 ]
  %99 = call nonnull align 8 dereferenceable(8) %"class.std::basic_ostream"* @_ZNSo3putEc(%"class.std::basic_ostream"* nonnull align 8 dereferenceable(8) @_ZSt4cout, i8 signext %98)
  br label %100

100:                                              ; preds = %97, %69
  %101 = phi %"class.std::basic_ostream"* [ %99, %97 ], [ %71, %69 ]
  %102 = phi i8 [ %16, %97 ], [ %42, %69 ]
  %103 = phi i32 [ %15, %97 ], [ 1, %69 ]
  %104 = call nonnull align 8 dereferenceable(8) %"class.std::basic_ostream"* @_ZNSo5flushEv(%"class.std::basic_ostream"* nonnull align 8 dereferenceable(8) %101)
  call void @llvm.lifetime.end.p0i8(i64 100001, i8* nonnull %6) #7
  %105 = add nuw nsw i32 %11, 1
  %106 = load i32, i32* %2, align 4, !tbaa !5
  %107 = icmp slt i32 %105, %106
  br i1 %107, label %9, label %108, !llvm.loop !21

108:                                              ; preds = %100, %0
  call void @llvm.lifetime.end.p0i8(i64 4, i8* nonnull %4) #7
  ret i32 0
}

; Function Attrs: argmemonly mustprogress nofree nosync nounwind willreturn
declare void @llvm.lifetime.start.p0i8(i64 immarg, i8* nocapture) #4

declare nonnull align 8 dereferenceable(16) %"class.std::basic_istream"* @_ZNSirsERi(%"class.std::basic_istream"* nonnull align 8 dereferenceable(16), i32* nonnull align 4 dereferenceable(4)) local_unnamed_addr #0

; Function Attrs: argmemonly mustprogress nofree nosync nounwind willreturn
declare void @llvm.lifetime.end.p0i8(i64 immarg, i8* nocapture) #4

declare void @_ZSt17__istream_extractRSiPcl(%"class.std::basic_istream"* nonnull align 8 dereferenceable(16), i8*, i64) local_unnamed_addr #0

declare nonnull align 8 dereferenceable(8) %"class.std::basic_ostream"* @_ZSt16__ostream_insertIcSt11char_traitsIcEERSt13basic_ostreamIT_T0_ES6_PKS3_l(%"class.std::basic_ostream"* nonnull align 8 dereferenceable(8), i8*, i64) local_unnamed_addr #0

declare nonnull align 8 dereferenceable(8) %"class.std::basic_ostream"* @_ZNSo3putEc(%"class.std::basic_ostream"* nonnull align 8 dereferenceable(8), i8 signext) local_unnamed_addr #0

declare nonnull align 8 dereferenceable(8) %"class.std::basic_ostream"* @_ZNSo5flushEv(%"class.std::basic_ostream"* nonnull align 8 dereferenceable(8)) local_unnamed_addr #0

; Function Attrs: noreturn
declare void @_ZSt16__throw_bad_castv() local_unnamed_addr #5

declare void @_ZNKSt5ctypeIcE13_M_widen_initEv(%"class.std::ctype"* nonnull align 8 dereferenceable(570)) local_unnamed_addr #0

; Function Attrs: sspstrong uwtable
define internal void @_GLOBAL__sub_I_655.cpp() #6 section ".text.startup" {
  tail call void @_ZNSt8ios_base4InitC1Ev(%"class.std::ios_base::Init"* nonnull align 1 dereferenceable(1) @_ZStL8__ioinit)
  %1 = tail call i32 @__cxa_atexit(void (i8*)* bitcast (void (%"class.std::ios_base::Init"*)* @_ZNSt8ios_base4InitD1Ev to void (i8*)*), i8* getelementptr inbounds (%"class.std::ios_base::Init", %"class.std::ios_base::Init"* @_ZStL8__ioinit, i64 0, i32 0), i8* nonnull @__dso_handle) #7
  ret void
}


!llvm.module.flags = !{!0, !1, !2, !3}
!llvm.ident = !{!4}

!0 = !{i32 1, !"wchar_size", i32 4}
!1 = !{i32 7, !"PIC Level", i32 2}
!2 = !{i32 7, !"PIE Level", i32 2}
!3 = !{i32 7, !"uwtable", i32 1}
!4 = !{!"clang version 13.0.0"}
!5 = !{!6, !6, i64 0}
!6 = !{!"int", !7, i64 0}
!7 = !{!"omnipotent char", !8, i64 0}
!8 = !{!"Simple C++ TBAA"}
!9 = !{!7, !7, i64 0}
!10 = distinct !{!10, !11}
!11 = !{!"llvm.loop.mustprogress"}
!12 = distinct !{!12, !11}
!13 = !{!14, !14, i64 0}
!14 = !{!"vtable pointer", !8, i64 0}
!15 = !{!16, !17, i64 240}
!16 = !{!"_ZTSSt9basic_iosIcSt11char_traitsIcEE", !17, i64 216, !7, i64 224, !18, i64 225, !17, i64 232, !17, i64 240, !17, i64 248, !17, i64 256}
!17 = !{!"any pointer", !7, i64 0}
!18 = !{!"bool", !7, i64 0}
!19 = !{!20, !7, i64 56}
!20 = !{!"_ZTSSt5ctypeIcE", !17, i64 16, !18, i64 24, !17, i64 32, !17, i64 40, !17, i64 48, !7, i64 56, !7, i64 57, !7, i64 313, !7, i64 569}
!21 = distinct !{!21, !11}
